target datalayout = "e-m:e-p270:32:32-p271:32:32-p272:64:64-i64:64-i128:128-f80:128-n8:16:32:64-S128"
target triple = "x86_64-pc-linux-gnu"

%struct.CVodeMemRec = type { double, ptr, ptr, i32, i32, i32, double, double, ptr, i32, ptr, ptr, i32, ptr, i32, i32, double, double, ptr, i32, i32, i32, ptr, ptr, ptr, i32, i32, ptr, ptr, ptr, i32, double, i32, i32, double, ptr, ptr, i32, ptr, ptr, i32, i32, i32, double, ptr, ptr, [13 x ptr], ptr, ptr, ptr, ptr, ptr, [13 x ptr], ptr, ptr, ptr, ptr, [13 x ptr], ptr, ptr, ptr, ptr, ptr, i32, [13 x ptr], ptr, ptr, ptr, ptr, ptr, i32, double, i32, i32, i32, i32, i32, double, double, double, double, double, double, double, double, [14 x double], [6 x double], [13 x double], double, double, double, double, double, double, double, double, double, double, double, i32, ptr, i32, i64, i32, i32, i32, i32, i32, double, double, double, i64, i64, i64, i64, i64, i64, i64, i64, i64, ptr, i64, i64, ptr, i64, i64, i64, i64, i64, i64, i32, i64, i64, i64, i64, i64, i64, double, double, double, ptr, ptr, ptr, ptr, ptr, i32, i32, i64, double, double, double, i32, double, i32, i32, i32, i32, i32, i32, i32, i32, i32, i32, i32, i32, i32, i32, i32, i32, ptr, ptr, ptr, i32, [6 x [4 x double]], i32, i64, ptr, i32, ptr, ptr, double, double, double, ptr, ptr, ptr, double, double, i32, i32, i64, ptr, i32, i32, ptr, i32 }

@.str = private unnamed_addr constant [7 x i8] c"CVODES\00", align 1
@.str.2 = private unnamed_addr constant [26 x i8] c"cvode_mem = NULL illegal.\00", align 1
@.str.15 = private unnamed_addr constant [16 x i8] c"CVodeSetMinStep\00", align 1
@.str.16 = private unnamed_addr constant [18 x i8] c"hmin < 0 illegal.\00", align 1
@.str.17 = private unnamed_addr constant [44 x i8] c"Inconsistent step size limits: hmin > hmax.\00", align 1

; Function Attrs: nounwind uwtable
define i32 @CVodeSetMinStep(ptr noundef %0, double noundef %1) #0 {
  %3 = alloca i32, align 4
  %4 = alloca ptr, align 8
  %5 = alloca double, align 8
  %6 = alloca ptr, align 8
  %7 = alloca i32, align 4
  store ptr %0, ptr %4, align 8, !tbaa !3
  store double %1, ptr %5, align 8, !tbaa !36
  call void @llvm.lifetime.start.p0(i64 8, ptr %6) #5
  %8 = load ptr, ptr %4, align 8, !tbaa !3
  %9 = icmp eq ptr %8, null
  br i1 %9, label %10, label %11

10:                                               ; preds = %2
  call void (ptr, i32, ptr, ptr, ptr, ...) @cvProcessError(ptr noundef null, i32 noundef -21, ptr noundef @.str, ptr noundef @.str.15, ptr noundef @.str.2)
  store i32 -21, ptr %3, align 4
  store i32 1, ptr %7, align 4
  br label %36

11:                                               ; preds = %2
  %12 = load ptr, ptr %4, align 8, !tbaa !3
  store ptr %12, ptr %6, align 8, !tbaa !7
  %13 = load double, ptr %5, align 8, !tbaa !36
  %14 = fcmp olt double %13, 0.000000e+00
  br i1 %14, label %15, label %17

15:                                               ; preds = %11
  %16 = load ptr, ptr %6, align 8, !tbaa !7
  call void (ptr, i32, ptr, ptr, ptr, ...) @cvProcessError(ptr noundef %16, i32 noundef -22, ptr noundef @.str, ptr noundef @.str.15, ptr noundef @.str.16)
  store i32 -22, ptr %3, align 4
  store i32 1, ptr %7, align 4
  br label %36

17:                                               ; preds = %11
  %18 = load double, ptr %5, align 8, !tbaa !36
  %19 = fcmp oeq double %18, 0.000000e+00
  br i1 %19, label %20, label %23

20:                                               ; preds = %17
  %21 = load ptr, ptr %6, align 8, !tbaa !7
  %22 = getelementptr inbounds nuw %struct.CVodeMemRec, ptr %21, i32 0, i32 108
  store double 0.000000e+00, ptr %22, align 8, !tbaa !38
  store i32 0, ptr %3, align 4
  store i32 1, ptr %7, align 4
  br label %36

23:                                               ; preds = %17
  %24 = load double, ptr %5, align 8, !tbaa !36
  %25 = load ptr, ptr %6, align 8, !tbaa !7
  %26 = getelementptr inbounds nuw %struct.CVodeMemRec, ptr %25, i32 0, i32 109
  %27 = load double, ptr %26, align 8, !tbaa !39
  %28 = fmul double %24, %27
  %29 = fcmp ogt double %28, 1.000000e+00
  br i1 %29, label %30, label %32

30:                                               ; preds = %23
  %31 = load ptr, ptr %6, align 8, !tbaa !7
  call void (ptr, i32, ptr, ptr, ptr, ...) @cvProcessError(ptr noundef %31, i32 noundef -22, ptr noundef @.str, ptr noundef @.str.15, ptr noundef @.str.17)
  store i32 -22, ptr %3, align 4
  store i32 1, ptr %7, align 4
  br label %36

32:                                               ; preds = %23
  %33 = load double, ptr %5, align 8, !tbaa !36
  %34 = load ptr, ptr %6, align 8, !tbaa !7
  %35 = getelementptr inbounds nuw %struct.CVodeMemRec, ptr %34, i32 0, i32 108
  store double %33, ptr %35, align 8, !tbaa !38
  store i32 0, ptr %3, align 4
  store i32 1, ptr %7, align 4
  br label %36

36:                                               ; preds = %32, %30, %20, %15, %10
  call void @llvm.lifetime.end.p0(i64 8, ptr %6) #5
  %37 = load i32, ptr %3, align 4
  ret i32 %37
}